target datalayout = "e-m:e-p270:32:32-p271:32:32-p272:64:64-i64:64-i128:128-f80:128-n8:16:32:64-S128"
target triple = "x86_64-pc-linux-gnu"

@_pcre2_OP_lengths_8 = external constant [0 x i8], align 1

; Function Attrs: nounwind uwtable
define internal ptr @first_significant_code(ptr noundef %0, i32 noundef %1) #0 {
  %3 = alloca ptr, align 8
  %4 = alloca ptr, align 8
  %5 = alloca i32, align 4
  store ptr %0, ptr %4, align 8
  store i32 %1, ptr %5, align 4
  br label %6

6:                                                ; preds = %149, %2
  %7 = load ptr, ptr %4, align 8
  %8 = load i8, ptr %7, align 1
  %9 = zext i8 %8 to i32
  switch i32 %9, label %147 [
    i32 128, label %10
    i32 129, label %10
    i32 130, label %10
    i32 132, label %10
    i32 5, label %45
    i32 4, label %45
    i32 170, label %45
    i32 169, label %45
    i32 118, label %51
    i32 145, label %51
    i32 146, label %51
    i32 147, label %51
    i32 148, label %51
    i32 149, label %51
    i32 150, label %51
    i32 119, label %61
    i32 167, label %75
    i32 139, label %91
    i32 144, label %91
    i32 154, label %132
    i32 162, label %132
    i32 156, label %132
    i32 158, label %132
    i32 160, label %132
  ]

10:                                               ; preds = %6, %6, %6, %6
  %11 = load i32, ptr %5, align 4
  %12 = icmp ne i32 %11, 0
  br i1 %12, label %15, label %13

13:                                               ; preds = %10
  %14 = load ptr, ptr %4, align 8
  store ptr %14, ptr %3, align 8
  br label %150

15:                                               ; preds = %10
  br label %16

16:                                               ; preds = %30, %15
  %17 = load ptr, ptr %4, align 8
  %18 = getelementptr inbounds i8, ptr %17, i64 1
  %19 = load i8, ptr %18, align 1
  %20 = zext i8 %19 to i32
  %21 = shl i32 %20, 8
  %22 = load ptr, ptr %4, align 8
  %23 = getelementptr inbounds i8, ptr %22, i64 2
  %24 = load i8, ptr %23, align 1
  %25 = zext i8 %24 to i32
  %26 = or i32 %21, %25
  %27 = load ptr, ptr %4, align 8
  %28 = zext i32 %26 to i64
  %29 = getelementptr inbounds i8, ptr %27, i64 %28
  store ptr %29, ptr %4, align 8
  br label %30

30:                                               ; preds = %16
  %31 = load ptr, ptr %4, align 8
  %32 = load i8, ptr %31, align 1
  %33 = zext i8 %32 to i32
  %34 = icmp eq i32 %33, 120
  br i1 %34, label %16, label %35

35:                                               ; preds = %30
  %36 = load ptr, ptr %4, align 8
  %37 = load i8, ptr %36, align 1
  %38 = zext i8 %37 to i64
  %39 = getelementptr inbounds [0 x i8], ptr @_pcre2_OP_lengths_8, i64 0, i64 %38
  %40 = load i8, ptr %39, align 1
  %41 = zext i8 %40 to i32
  %42 = load ptr, ptr %4, align 8
  %43 = sext i32 %41 to i64
  %44 = getelementptr inbounds i8, ptr %42, i64 %43
  store ptr %44, ptr %4, align 8
  br label %149

45:                                               ; preds = %6, %6, %6, %6
  %46 = load i32, ptr %5, align 4
  %47 = icmp ne i32 %46, 0
  br i1 %47, label %50, label %48

48:                                               ; preds = %45
  %49 = load ptr, ptr %4, align 8
  store ptr %49, ptr %3, align 8
  br label %150

50:                                               ; preds = %45
  br label %51

51:                                               ; preds = %50, %6, %6, %6, %6, %6, %6, %6
  %52 = load ptr, ptr %4, align 8
  %53 = load i8, ptr %52, align 1
  %54 = zext i8 %53 to i64
  %55 = getelementptr inbounds [0 x i8], ptr @_pcre2_OP_lengths_8, i64 0, i64 %54
  %56 = load i8, ptr %55, align 1
  %57 = zext i8 %56 to i32
  %58 = load ptr, ptr %4, align 8
  %59 = sext i32 %57 to i64
  %60 = getelementptr inbounds i8, ptr %58, i64 %59
  store ptr %60, ptr %4, align 8
  br label %149

61:                                               ; preds = %6
  %62 = load ptr, ptr %4, align 8
  %63 = getelementptr inbounds i8, ptr %62, i64 5
  %64 = load i8, ptr %63, align 1
  %65 = zext i8 %64 to i32
  %66 = shl i32 %65, 8
  %67 = load ptr, ptr %4, align 8
  %68 = getelementptr inbounds i8, ptr %67, i64 6
  %69 = load i8, ptr %68, align 1
  %70 = zext i8 %69 to i32
  %71 = or i32 %66, %70
  %72 = load ptr, ptr %4, align 8
  %73 = zext i32 %71 to i64
  %74 = getelementptr inbounds i8, ptr %72, i64 %73
  store ptr %74, ptr %4, align 8
  br label %149

75:                                               ; preds = %6
  %76 = load ptr, ptr %4, align 8
  %77 = getelementptr inbounds i8, ptr %76, i64 2
  %78 = load i8, ptr %77, align 1
  %79 = zext i8 %78 to i32
  %80 = shl i32 %79, 8
  %81 = load ptr, ptr %4, align 8
  %82 = getelementptr inbounds i8, ptr %81, i64 3
  %83 = load i8, ptr %82, align 1
  %84 = zext i8 %83 to i32
  %85 = or i32 %80, %84
  %86 = add i32 2, %85
  %87 = add i32 %86, 2
  %88 = load ptr, ptr %4, align 8
  %89 = zext i32 %87 to i64
  %90 = getelementptr inbounds i8, ptr %88, i64 %89
  store ptr %90, ptr %4, align 8
  br label %149

91:                                               ; preds = %6, %6
  %92 = load ptr, ptr %4, align 8
  %93 = getelementptr inbounds i8, ptr %92, i64 3
  %94 = load i8, ptr %93, align 1
  %95 = zext i8 %94 to i32
  %96 = icmp ne i32 %95, 149
  br i1 %96, label %114, label %97

97:                                               ; preds = %91
  %98 = load ptr, ptr %4, align 8
  %99 = load ptr, ptr %4, align 8
  %100 = getelementptr inbounds i8, ptr %99, i64 1
  %101 = load i8, ptr %100, align 1
  %102 = zext i8 %101 to i32
  %103 = shl i32 %102, 8
  %104 = load ptr, ptr %4, align 8
  %105 = getelementptr inbounds i8, ptr %104, i64 2
  %106 = load i8, ptr %105, align 1
  %107 = zext i8 %106 to i32
  %108 = or i32 %103, %107
  %109 = zext i32 %108 to i64
  %110 = getelementptr inbounds i8, ptr %98, i64 %109
  %111 = load i8, ptr %110, align 1
  %112 = zext i8 %111 to i32
  %113 = icmp ne i32 %112, 121
  br i1 %113, label %114, label %116

114:                                              ; preds = %97, %91
  %115 = load ptr, ptr %4, align 8
  store ptr %115, ptr %3, align 8
  br label %150

116:                                              ; preds = %97
  %117 = load ptr, ptr %4, align 8
  %118 = getelementptr inbounds i8, ptr %117, i64 1
  %119 = load i8, ptr %118, align 1
  %120 = zext i8 %119 to i32
  %121 = shl i32 %120, 8
  %122 = load ptr, ptr %4, align 8
  %123 = getelementptr inbounds i8, ptr %122, i64 2
  %124 = load i8, ptr %123, align 1
  %125 = zext i8 %124 to i32
  %126 = or i32 %121, %125
  %127 = add i32 %126, 1
  %128 = add i32 %127, 2
  %129 = load ptr, ptr %4, align 8
  %130 = zext i32 %128 to i64
  %131 = getelementptr inbounds i8, ptr %129, i64 %130
  store ptr %131, ptr %4, align 8
  br label %149

132:                                              ; preds = %6, %6, %6, %6, %6
  %133 = load ptr, ptr %4, align 8
  %134 = getelementptr inbounds i8, ptr %133, i64 1
  %135 = load i8, ptr %134, align 1
  %136 = zext i8 %135 to i32
  %137 = load ptr, ptr %4, align 8
  %138 = load i8, ptr %137, align 1
  %139 = zext i8 %138 to i64
  %140 = getelementptr inbounds [0 x i8], ptr @_pcre2_OP_lengths_8, i64 0, i64 %139
  %141 = load i8, ptr %140, align 1
  %142 = zext i8 %141 to i32
  %143 = add nsw i32 %136, %142
  %144 = load ptr, ptr %4, align 8
  %145 = sext i32 %143 to i64
  %146 = getelementptr inbounds i8, ptr %144, i64 %145
  store ptr %146, ptr %4, align 8
  br label %149

147:                                              ; preds = %6
  %148 = load ptr, ptr %4, align 8
  store ptr %148, ptr %3, align 8
  br label %150

149:                                              ; preds = %132, %116, %75, %61, %51, %35
  br label %6

150:                                              ; preds = %147, %114, %48, %13
  %151 = load ptr, ptr %3, align 8
  ret ptr %151
}