; Function Attrs: nofree norecurse nosync nounwind memory(read, inaccessiblemem: none) uwtable
define internal fastcc noundef ptr @first_significant_code(ptr noundef readonly %0, i32 noundef %1) unnamed_addr #7 {
  %.not34 = icmp eq i32 %1, 0
  br i1 %.not34, label %.split.us.split.us, label %.split.split

.split.us.split.us:                               ; preds = %2, %55
  %.031.us.us = phi ptr [ %56, %55 ], [ %0, %2 ]
  %3 = load i8, ptr %.031.us.us, align 1
  switch i8 %3, label %.split37.us [
    i8 -96, label %4
    i8 -98, label %4
    i8 -100, label %4
    i8 -94, label %4
    i8 -102, label %4
    i8 -112, label %13
    i8 -117, label %13
    i8 -89, label %31
    i8 118, label %50
    i8 -111, label %50
    i8 -110, label %50
    i8 -109, label %50
    i8 -108, label %50
    i8 -107, label %50
    i8 -106, label %50
    i8 119, label %41
  ]

4:                                                ; preds = %.split.us.split.us, %.split.us.split.us, %.split.us.split.us, %.split.us.split.us, %.split.us.split.us
  %5 = getelementptr inbounds i8, ptr %.031.us.us, i64 1
  %6 = load i8, ptr %5, align 1
  %7 = zext i8 %6 to i64
  %8 = zext i8 %3 to i64
  %9 = getelementptr inbounds [0 x i8], ptr @_pcre2_OP_lengths_8, i64 0, i64 %8
  %10 = load i8, ptr %9, align 1
  %11 = zext i8 %10 to i64
  %12 = add nuw nsw i64 %11, %7
  br label %55

13:                                               ; preds = %.split.us.split.us, %.split.us.split.us
  %14 = getelementptr inbounds i8, ptr %.031.us.us, i64 3
  %15 = load i8, ptr %14, align 1
  %.not.us.us = icmp eq i8 %15, -107
  br i1 %.not.us.us, label %16, label %.split37.us

16:                                               ; preds = %13
  %17 = getelementptr inbounds i8, ptr %.031.us.us, i64 1
  %18 = load i8, ptr %17, align 1
  %19 = zext i8 %18 to i32
  %20 = shl nuw nsw i32 %19, 8
  %21 = getelementptr inbounds i8, ptr %.031.us.us, i64 2
  %22 = load i8, ptr %21, align 1
  %23 = zext i8 %22 to i32
  %24 = or disjoint i32 %20, %23
  %25 = zext nneg i32 %24 to i64
  %26 = getelementptr inbounds i8, ptr %.031.us.us, i64 %25
  %27 = load i8, ptr %26, align 1
  %.not32.us.us = icmp eq i8 %27, 121
  br i1 %.not32.us.us, label %28, label %.split37.us

28:                                               ; preds = %16
  %29 = add nuw nsw i32 %24, 3
  %30 = zext nneg i32 %29 to i64
  br label %55

31:                                               ; preds = %.split.us.split.us
  %32 = getelementptr inbounds i8, ptr %.031.us.us, i64 2
  %33 = load i8, ptr %32, align 1
  %34 = zext i8 %33 to i64
  %35 = shl nuw nsw i64 %34, 8
  %36 = getelementptr inbounds i8, ptr %.031.us.us, i64 3
  %37 = load i8, ptr %36, align 1
  %38 = zext i8 %37 to i64
  %39 = or disjoint i64 %35, %38
  %40 = add nuw nsw i64 %39, 4
  br label %55

41:                                               ; preds = %.split.us.split.us
  %42 = getelementptr inbounds i8, ptr %.031.us.us, i64 5
  %43 = load i8, ptr %42, align 1
  %44 = zext i8 %43 to i64
  %45 = shl nuw nsw i64 %44, 8
  %46 = getelementptr inbounds i8, ptr %.031.us.us, i64 6
  %47 = load i8, ptr %46, align 1
  %48 = zext i8 %47 to i64
  %49 = or disjoint i64 %45, %48
  br label %55

50:                                               ; preds = %.split.us.split.us, %.split.us.split.us, %.split.us.split.us, %.split.us.split.us, %.split.us.split.us, %.split.us.split.us, %.split.us.split.us
  %51 = zext i8 %3 to i64
  %52 = getelementptr inbounds [0 x i8], ptr @_pcre2_OP_lengths_8, i64 0, i64 %51
  %53 = load i8, ptr %52, align 1
  %54 = zext i8 %53 to i64
  br label %55

55:                                               ; preds = %50, %41, %31, %28, %4
  %.sink = phi i64 [ %54, %50 ], [ %49, %41 ], [ %40, %31 ], [ %30, %28 ], [ %12, %4 ]
  %56 = getelementptr inbounds i8, ptr %.031.us.us, i64 %.sink
  br label %.split.us.split.us

.split.split:                                     ; preds = %2, %.split.split.backedge
  %.031 = phi ptr [ %.031.be, %.split.split.backedge ], [ %0, %2 ]
  %57 = load i8, ptr %.031, align 1
  switch i8 %57, label %.split37.us [
    i8 -128, label %.preheader.preheader
    i8 -127, label %.preheader.preheader
    i8 -126, label %.preheader.preheader
    i8 -124, label %.preheader.preheader
    i8 5, label %75
    i8 4, label %75
    i8 -86, label %75
    i8 -87, label %75
    i8 118, label %75
    i8 -111, label %75
    i8 -110, label %75
    i8 -109, label %75
    i8 -108, label %75
    i8 -107, label %75
    i8 -106, label %75
    i8 119, label %81
    i8 -89, label %91
    i8 -117, label %102
    i8 -112, label %102
    i8 -102, label %121
    i8 -94, label %121
    i8 -100, label %121
    i8 -98, label %121
    i8 -96, label %121
  ]

.preheader.preheader:                             ; preds = %.split.split, %.split.split, %.split.split, %.split.split
  br label %.preheader

.preheader:                                       ; preds = %.preheader.preheader, %.preheader
  %.1 = phi ptr [ %66, %.preheader ], [ %.031, %.preheader.preheader ]
  %58 = getelementptr inbounds i8, ptr %.1, i64 1
  %59 = load i8, ptr %58, align 1
  %60 = zext i8 %59 to i64
  %61 = shl nuw nsw i64 %60, 8
  %62 = getelementptr inbounds i8, ptr %.1, i64 2
  %63 = load i8, ptr %62, align 1
  %64 = zext i8 %63 to i64
  %65 = or disjoint i64 %61, %64
  %66 = getelementptr inbounds i8, ptr %.1, i64 %65
  %67 = load i8, ptr %66, align 1
  %68 = icmp eq i8 %67, 120
  br i1 %68, label %.preheader, label %69

69:                                               ; preds = %.preheader
  %70 = zext i8 %67 to i64
  %71 = getelementptr inbounds [0 x i8], ptr @_pcre2_OP_lengths_8, i64 0, i64 %70
  %72 = load i8, ptr %71, align 1
  %73 = zext i8 %72 to i64
  %74 = getelementptr inbounds i8, ptr %66, i64 %73
  br label %.split.split.backedge

75:                                               ; preds = %.split.split, %.split.split, %.split.split, %.split.split, %.split.split, %.split.split, %.split.split, %.split.split, %.split.split, %.split.split, %.split.split
  %76 = zext i8 %57 to i64
  %77 = getelementptr inbounds [0 x i8], ptr @_pcre2_OP_lengths_8, i64 0, i64 %76
  %78 = load i8, ptr %77, align 1
  %79 = zext i8 %78 to i64
  %80 = getelementptr inbounds i8, ptr %.031, i64 %79
  br label %.split.split.backedge

81:                                               ; preds = %.split.split
  %82 = getelementptr inbounds i8, ptr %.031, i64 5
  %83 = load i8, ptr %82, align 1
  %84 = zext i8 %83 to i64
  %85 = shl nuw nsw i64 %84, 8
  %86 = getelementptr inbounds i8, ptr %.031, i64 6
  %87 = load i8, ptr %86, align 1
  %88 = zext i8 %87 to i64
  %89 = or disjoint i64 %85, %88
  %90 = getelementptr inbounds i8, ptr %.031, i64 %89
  br label %.split.split.backedge

91:                                               ; preds = %.split.split
  %92 = getelementptr inbounds i8, ptr %.031, i64 2
  %93 = load i8, ptr %92, align 1
  %94 = zext i8 %93 to i64
  %95 = shl nuw nsw i64 %94, 8
  %96 = getelementptr inbounds i8, ptr %.031, i64 3
  %97 = load i8, ptr %96, align 1
  %98 = zext i8 %97 to i64
  %99 = or disjoint i64 %95, %98
  %100 = add nuw nsw i64 %99, 4
  %101 = getelementptr inbounds i8, ptr %.031, i64 %100
  br label %.split.split.backedge

102:                                              ; preds = %.split.split, %.split.split
  %103 = getelementptr inbounds i8, ptr %.031, i64 3
  %104 = load i8, ptr %103, align 1
  %.not = icmp eq i8 %104, -107
  br i1 %.not, label %105, label %.split37.us

105:                                              ; preds = %102
  %106 = getelementptr inbounds i8, ptr %.031, i64 1
  %107 = load i8, ptr %106, align 1
  %108 = zext i8 %107 to i32
  %109 = shl nuw nsw i32 %108, 8
  %110 = getelementptr inbounds i8, ptr %.031, i64 2
  %111 = load i8, ptr %110, align 1
  %112 = zext i8 %111 to i32
  %113 = or disjoint i32 %109, %112
  %114 = zext nneg i32 %113 to i64
  %115 = getelementptr inbounds i8, ptr %.031, i64 %114
  %116 = load i8, ptr %115, align 1
  %.not32 = icmp eq i8 %116, 121
  br i1 %.not32, label %117, label %.split37.us

117:                                              ; preds = %105
  %118 = add nuw nsw i32 %113, 3
  %119 = zext nneg i32 %118 to i64
  %120 = getelementptr inbounds i8, ptr %.031, i64 %119
  br label %.split.split.backedge

121:                                              ; preds = %.split.split, %.split.split, %.split.split, %.split.split, %.split.split
  %122 = getelementptr inbounds i8, ptr %.031, i64 1
  %123 = load i8, ptr %122, align 1
  %124 = zext i8 %123 to i64
  %125 = zext i8 %57 to i64
  %126 = getelementptr inbounds [0 x i8], ptr @_pcre2_OP_lengths_8, i64 0, i64 %125
  %127 = load i8, ptr %126, align 1
  %128 = zext i8 %127 to i64
  %129 = add nuw nsw i64 %128, %124
  %130 = getelementptr inbounds i8, ptr %.031, i64 %129
  br label %.split.split.backedge

.split.split.backedge:                            ; preds = %121, %117, %91, %81, %75, %69
  %.031.be = phi ptr [ %130, %121 ], [ %120, %117 ], [ %101, %91 ], [ %90, %81 ], [ %80, %75 ], [ %74, %69 ]
  br label %.split.split

.split37.us:                                      ; preds = %.split.split, %102, %105, %.split.us.split.us, %13, %16
  %.us-phi = phi ptr [ %.031.us.us, %16 ], [ %.031.us.us, %13 ], [ %.031.us.us, %.split.us.split.us ], [ %.031, %105 ], [ %.031, %102 ], [ %.031, %.split.split ]
  ret ptr %.us-phi
}